; Function Attrs: mustprogress nounwind willreturn memory(argmem: readwrite, inaccessiblemem: readwrite) uwtable
define dso_local noundef i32 @LZ4_freeHC(ptr noundef captures(address_is_null) %0) local_unnamed_addr #12 {
  %.not = icmp eq ptr %0, null
  br i1 %.not, label %3, label %2

2:                                                ; preds = %1
  tail call void @free(ptr noundef nonnull %0) #18
  br label %3

3:                                                ; preds = %1, %2
  ret i32 0
}